target datalayout = "e-m:e-p270:32:32-p271:32:32-p272:64:64-i64:64-i128:128-f80:128-n8:16:32:64-S128"
target triple = "x86_64-pc-linux-gnu"

%"class.clang::QualType" = type { %"class.llvm::PointerIntPair.162" }
%"class.llvm::PointerIntPair.162" = type { %"struct.llvm::detail::PunnedPointer.163" }
%"struct.llvm::detail::PunnedPointer.163" = type { [8 x i8] }
%"class.clang::Stmt" = type { %union.anon.628 }
%union.anon.628 = type { %"class.clang::Stmt::PseudoObjectExprBitfields" }
%"class.clang::Stmt::PseudoObjectExprBitfields" = type { i64 }
%"class.clang::Expr" = type { %"class.clang::ValueStmt", %"class.clang::QualType" }
%"class.clang::ValueStmt" = type { %"class.clang::Stmt" }
%"class.clang::DeclRefExpr" = type { %"class.clang::Expr", ptr, %"class.clang::DeclarationNameLoc" }
%"class.clang::DeclarationNameLoc" = type { %union.anon.183 }
%union.anon.183 = type { %"struct.clang::DeclarationNameLoc::NT" }
%"struct.clang::DeclarationNameLoc::NT" = type { ptr }
%"class.clang::BinaryOperator" = type { %"class.clang::Expr", [2 x ptr] }

; Function Attrs: mustprogress nounwind uwtable
define linkonce_odr hidden noundef i32 @_ZNK5clang4Stmt12getStmtClassEv(ptr noundef nonnull align 8 dereferenceable(8) %0) #0 comdat align 2 {
  %2 = alloca ptr, align 8
  store ptr %0, ptr %2, align 8
  %3 = load ptr, ptr %2, align 8
  %4 = getelementptr inbounds nuw %"class.clang::Stmt", ptr %3, i32 0, i32 0
  %5 = load i8, ptr %4, align 8
  %6 = zext i8 %5 to i32
  ret i32 %6
}

; Function Attrs: mustprogress nounwind uwtable
define linkonce_odr hidden noundef zeroext i1 @_ZN5clang11DeclRefExpr7classofEPKNS_4StmtE(ptr noundef %0) #0 comdat align 2 {
  %2 = alloca ptr, align 8
  store ptr %0, ptr %2, align 8
  %3 = load ptr, ptr %2, align 8
  %4 = call noundef i32 @_ZNK5clang4Stmt12getStmtClassEv(ptr noundef nonnull align 8 dereferenceable(8) %3)
  %5 = icmp eq i32 %4, 71
  ret i1 %5
}

; Function Attrs: mustprogress nounwind uwtable
define linkonce_odr hidden noundef zeroext i1 @_ZN5clang14BinaryOperator7classofEPKNS_4StmtE(ptr noundef %0) #0 comdat align 2 {
  %2 = alloca ptr, align 8
  store ptr %0, ptr %2, align 8
  %3 = load ptr, ptr %2, align 8
  %4 = call noundef i32 @_ZNK5clang4Stmt12getStmtClassEv(ptr noundef nonnull align 8 dereferenceable(8) %3)
  %5 = icmp sge i32 %4, 118
  br i1 %5, label %6, label %10

6:                                                ; preds = %1
  %7 = load ptr, ptr %2, align 8
  %8 = call noundef i32 @_ZNK5clang4Stmt12getStmtClassEv(ptr noundef nonnull align 8 dereferenceable(8) %7)
  %9 = icmp sle i32 %8, 119
  br label %10

10:                                               ; preds = %6, %1
  %11 = phi i1 [ false, %1 ], [ %9, %6 ]
  ret i1 %11
}

; Function Attrs: mustprogress nounwind uwtable
define linkonce_odr hidden noundef zeroext i1 @_ZN4llvm8isa_implIN5clang11DeclRefExprENS1_4ExprEvE4doitERKS3_(ptr noundef nonnull align 8 dereferenceable(16) %0) #0 comdat align 2 {
  %2 = alloca ptr, align 8
  store ptr %0, ptr %2, align 8
  %3 = load ptr, ptr %2, align 8
  %4 = call noundef zeroext i1 @_ZN5clang11DeclRefExpr7classofEPKNS_4StmtE(ptr noundef %3)
  ret i1 %4
}

; Function Attrs: mustprogress nounwind uwtable
define linkonce_odr hidden noundef zeroext i1 @_ZN4llvm8isa_implIN5clang14BinaryOperatorENS1_4ExprEvE4doitERKS3_(ptr noundef nonnull align 8 dereferenceable(16) %0) #0 comdat align 2 {
  %2 = alloca ptr, align 8
  store ptr %0, ptr %2, align 8
  %3 = load ptr, ptr %2, align 8
  %4 = call noundef zeroext i1 @_ZN5clang14BinaryOperator7classofEPKNS_4StmtE(ptr noundef %3)
  ret i1 %4
}

; Function Attrs: mustprogress nounwind uwtable
define linkonce_odr hidden noundef zeroext i1 @_ZN4llvm11isa_impl_clIN5clang11DeclRefExprEPKNS1_4ExprEE4doitES5_(ptr noundef %0) #0 comdat align 2 {
  %2 = alloca ptr, align 8
  store ptr %0, ptr %2, align 8
  %3 = load ptr, ptr %2, align 8
  %4 = call noundef zeroext i1 @_ZN4llvm8isa_implIN5clang11DeclRefExprENS1_4ExprEvE4doitERKS3_(ptr noundef nonnull align 8 dereferenceable(16) %3)
  ret i1 %4
}

; Function Attrs: mustprogress nounwind uwtable
define linkonce_odr hidden noundef nonnull align 8 dereferenceable(8) ptr @_ZN4llvm13simplify_typeIPN5clang4ExprEE18getSimplifiedValueERS3_(ptr noundef nonnull align 8 dereferenceable(8) %0) #0 comdat align 2 {
  %2 = alloca ptr, align 8
  store ptr %0, ptr %2, align 8
  %3 = load ptr, ptr %2, align 8
  ret ptr %3
}

; Function Attrs: mustprogress nounwind uwtable
define linkonce_odr hidden noundef zeroext i1 @_ZN4llvm11isa_impl_clIN5clang14BinaryOperatorEPKNS1_4ExprEE4doitES5_(ptr noundef %0) #0 comdat align 2 {
  %2 = alloca ptr, align 8
  store ptr %0, ptr %2, align 8
  %3 = load ptr, ptr %2, align 8
  %4 = call noundef zeroext i1 @_ZN4llvm8isa_implIN5clang14BinaryOperatorENS1_4ExprEvE4doitERKS3_(ptr noundef nonnull align 8 dereferenceable(16) %3)
  ret i1 %4
}

; Function Attrs: mustprogress nounwind uwtable
define linkonce_odr hidden noundef nonnull align 8 dereferenceable(8) ptr @_ZN4llvm13simplify_typeIPKN5clang4ExprEE18getSimplifiedValueERS4_(ptr noundef nonnull align 8 dereferenceable(8) %0) #0 comdat align 2 {
  %2 = alloca ptr, align 8
  store ptr %0, ptr %2, align 8
  %3 = load ptr, ptr %2, align 8
  ret ptr %3
}

; Function Attrs: mustprogress nounwind uwtable
define linkonce_odr hidden noundef zeroext i1 @_ZN4llvm13isa_impl_wrapIN5clang11DeclRefExprEPKNS1_4ExprES5_E4doitERKS5_(ptr noundef nonnull align 8 dereferenceable(8) %0) #0 comdat align 2 {
  %2 = alloca ptr, align 8
  store ptr %0, ptr %2, align 8
  %3 = load ptr, ptr %2, align 8
  %4 = load ptr, ptr %3, align 8
  %5 = call noundef zeroext i1 @_ZN4llvm11isa_impl_clIN5clang11DeclRefExprEPKNS1_4ExprEE4doitES5_(ptr noundef %4)
  ret i1 %5
}

; Function Attrs: mustprogress nounwind uwtable
define linkonce_odr hidden noundef ptr @_ZN4llvm13simplify_typeIKPN5clang4ExprEE18getSimplifiedValueERS4_(ptr noundef nonnull align 8 dereferenceable(8) %0) #0 comdat align 2 {
  %2 = alloca ptr, align 8
  store ptr %0, ptr %2, align 8
  %3 = load ptr, ptr %2, align 8
  %4 = call noundef nonnull align 8 dereferenceable(8) ptr @_ZN4llvm13simplify_typeIPN5clang4ExprEE18getSimplifiedValueERS3_(ptr noundef nonnull align 8 dereferenceable(8) %3)
  %5 = load ptr, ptr %4, align 8
  ret ptr %5
}

; Function Attrs: mustprogress nounwind uwtable
define linkonce_odr hidden noundef zeroext i1 @_ZN4llvm13isa_impl_wrapIN5clang14BinaryOperatorEPKNS1_4ExprES5_E4doitERKS5_(ptr noundef nonnull align 8 dereferenceable(8) %0) #0 comdat align 2 {
  %2 = alloca ptr, align 8
  store ptr %0, ptr %2, align 8
  %3 = load ptr, ptr %2, align 8
  %4 = load ptr, ptr %3, align 8
  %5 = call noundef zeroext i1 @_ZN4llvm11isa_impl_clIN5clang14BinaryOperatorEPKNS1_4ExprEE4doitES5_(ptr noundef %4)
  ret i1 %5
}

; Function Attrs: mustprogress nounwind uwtable
define linkonce_odr hidden noundef ptr @_ZN4llvm13simplify_typeIKPKN5clang4ExprEE18getSimplifiedValueERS5_(ptr noundef nonnull align 8 dereferenceable(8) %0) #0 comdat align 2 {
  %2 = alloca ptr, align 8
  store ptr %0, ptr %2, align 8
  %3 = load ptr, ptr %2, align 8
  %4 = call noundef nonnull align 8 dereferenceable(8) ptr @_ZN4llvm13simplify_typeIPKN5clang4ExprEE18getSimplifiedValueERS4_(ptr noundef nonnull align 8 dereferenceable(8) %3)
  %5 = load ptr, ptr %4, align 8
  ret ptr %5
}

; Function Attrs: mustprogress nounwind uwtable
define linkonce_odr hidden noundef ptr @_ZN4llvm16cast_convert_valIN5clang11DeclRefExprEPNS1_4ExprES4_E4doitEPKS3_(ptr noundef %0) #0 comdat align 2 {
  %2 = alloca ptr, align 8
  store ptr %0, ptr %2, align 8
  %3 = load ptr, ptr %2, align 8
  ret ptr %3
}

; Function Attrs: mustprogress nounwind uwtable
define linkonce_odr hidden noundef zeroext i1 @_ZN4llvm13isa_impl_wrapIN5clang11DeclRefExprEKPNS1_4ExprEPKS3_E4doitERS5_(ptr noundef nonnull align 8 dereferenceable(8) %0) #0 comdat align 2 {
  %2 = alloca ptr, align 8
  %3 = alloca ptr, align 8
  store ptr %0, ptr %2, align 8
  %4 = load ptr, ptr %2, align 8
  %5 = call noundef ptr @_ZN4llvm13simplify_typeIKPN5clang4ExprEE18getSimplifiedValueERS4_(ptr noundef nonnull align 8 dereferenceable(8) %4)
  store ptr %5, ptr %3, align 8
  %6 = call noundef zeroext i1 @_ZN4llvm13isa_impl_wrapIN5clang11DeclRefExprEPKNS1_4ExprES5_E4doitERKS5_(ptr noundef nonnull align 8 dereferenceable(8) %3)
  ret i1 %6
}

; Function Attrs: mustprogress nounwind uwtable
define linkonce_odr hidden noundef ptr @_ZN4llvm16cast_convert_valIN5clang14BinaryOperatorEPKNS1_4ExprES5_E4doitES5_(ptr noundef %0) #0 comdat align 2 {
  %2 = alloca ptr, align 8
  store ptr %0, ptr %2, align 8
  %3 = load ptr, ptr %2, align 8
  ret ptr %3
}

; Function Attrs: mustprogress nounwind uwtable
define linkonce_odr hidden noundef zeroext i1 @_ZN4llvm13isa_impl_wrapIN5clang14BinaryOperatorEKPKNS1_4ExprES5_E4doitERS6_(ptr noundef nonnull align 8 dereferenceable(8) %0) #0 comdat align 2 {
  %2 = alloca ptr, align 8
  %3 = alloca ptr, align 8
  store ptr %0, ptr %2, align 8
  %4 = load ptr, ptr %2, align 8
  %5 = call noundef ptr @_ZN4llvm13simplify_typeIKPKN5clang4ExprEE18getSimplifiedValueERS5_(ptr noundef nonnull align 8 dereferenceable(8) %4)
  store ptr %5, ptr %3, align 8
  %6 = call noundef zeroext i1 @_ZN4llvm13isa_impl_wrapIN5clang14BinaryOperatorEPKNS1_4ExprES5_E4doitERKS5_(ptr noundef nonnull align 8 dereferenceable(8) %3)
  ret i1 %6
}

; Function Attrs: mustprogress nounwind uwtable
define linkonce_odr hidden noundef ptr @_ZN4llvm16cast_convert_valIN5clang4ExprEPNS1_4StmtES4_E4doitEPKS3_(ptr noundef %0) #0 comdat align 2 {
  %2 = alloca ptr, align 8
  store ptr %0, ptr %2, align 8
  %3 = load ptr, ptr %2, align 8
  ret ptr %3
}

; Function Attrs: mustprogress nounwind uwtable
define linkonce_odr hidden noundef ptr @_ZN4llvm8CastInfoIN5clang11DeclRefExprEPNS1_4ExprEvE6doCastERKS4_(ptr noundef nonnull align 8 dereferenceable(8) %0) #0 comdat align 2 {
  %2 = alloca ptr, align 8
  store ptr %0, ptr %2, align 8
  %3 = load ptr, ptr %2, align 8
  %4 = load ptr, ptr %3, align 8
  %5 = call noundef ptr @_ZN4llvm16cast_convert_valIN5clang11DeclRefExprEPNS1_4ExprES4_E4doitEPKS3_(ptr noundef %4)
  ret ptr %5
}

; Function Attrs: mustprogress nounwind uwtable
define linkonce_odr hidden noundef ptr @_ZN4llvm8CastInfoIN5clang11DeclRefExprEPNS1_4ExprEvE10castFailedEv() #0 comdat align 2 {
  ret ptr null
}

; Function Attrs: mustprogress nounwind uwtable
define linkonce_odr hidden noundef zeroext i1 @_ZN4llvm14CastIsPossibleIN5clang11DeclRefExprEPNS1_4ExprEvE10isPossibleERKS4_(ptr noundef nonnull align 8 dereferenceable(8) %0) #0 comdat align 2 {
  %2 = alloca ptr, align 8
  store ptr %0, ptr %2, align 8
  %3 = load ptr, ptr %2, align 8
  %4 = call noundef zeroext i1 @_ZN4llvm13isa_impl_wrapIN5clang11DeclRefExprEKPNS1_4ExprEPKS3_E4doitERS5_(ptr noundef nonnull align 8 dereferenceable(8) %3)
  ret i1 %4
}

; Function Attrs: mustprogress nounwind uwtable
define linkonce_odr hidden noundef ptr @_ZN4llvm8CastInfoIN5clang14BinaryOperatorEPKNS1_4ExprEvE6doCastERKS5_(ptr noundef nonnull align 8 dereferenceable(8) %0) #0 comdat align 2 {
  %2 = alloca ptr, align 8
  store ptr %0, ptr %2, align 8
  %3 = load ptr, ptr %2, align 8
  %4 = load ptr, ptr %3, align 8
  %5 = call noundef ptr @_ZN4llvm16cast_convert_valIN5clang14BinaryOperatorEPKNS1_4ExprES5_E4doitES5_(ptr noundef %4)
  ret ptr %5
}

; Function Attrs: mustprogress nounwind uwtable
define linkonce_odr hidden noundef ptr @_ZN4llvm8CastInfoIN5clang14BinaryOperatorEPKNS1_4ExprEvE10castFailedEv() #0 comdat align 2 {
  ret ptr null
}

; Function Attrs: mustprogress nounwind uwtable
define linkonce_odr hidden noundef zeroext i1 @_ZN4llvm14CastIsPossibleIN5clang14BinaryOperatorEPKNS1_4ExprEvE10isPossibleERKS5_(ptr noundef nonnull align 8 dereferenceable(8) %0) #0 comdat align 2 {
  %2 = alloca ptr, align 8
  store ptr %0, ptr %2, align 8
  %3 = load ptr, ptr %2, align 8
  %4 = call noundef zeroext i1 @_ZN4llvm13isa_impl_wrapIN5clang14BinaryOperatorEKPKNS1_4ExprES5_E4doitERS6_(ptr noundef nonnull align 8 dereferenceable(8) %3)
  ret i1 %4
}

; Function Attrs: mustprogress nounwind uwtable
define linkonce_odr hidden noundef ptr @_ZN4llvm8CastInfoIN5clang4ExprEPNS1_4StmtEvE6doCastERKS4_(ptr noundef nonnull align 8 dereferenceable(8) %0) #0 comdat align 2 {
  %2 = alloca ptr, align 8
  store ptr %0, ptr %2, align 8
  %3 = load ptr, ptr %2, align 8
  %4 = load ptr, ptr %3, align 8
  %5 = call noundef ptr @_ZN4llvm16cast_convert_valIN5clang4ExprEPNS1_4StmtES4_E4doitEPKS3_(ptr noundef %4)
  ret ptr %5
}

; Function Attrs: mustprogress nounwind uwtable
define linkonce_odr hidden noundef ptr @_ZN4llvm8CastInfoIN5clang11DeclRefExprEPNS1_4ExprEvE16doCastIfPossibleERKS4_(ptr noundef nonnull align 8 dereferenceable(8) %0) #0 comdat align 2 {
  %2 = alloca ptr, align 8
  %3 = alloca ptr, align 8
  store ptr %0, ptr %3, align 8
  %4 = load ptr, ptr %3, align 8
  %5 = call noundef zeroext i1 @_ZN4llvm14CastIsPossibleIN5clang11DeclRefExprEPNS1_4ExprEvE10isPossibleERKS4_(ptr noundef nonnull align 8 dereferenceable(8) %4)
  br i1 %5, label %8, label %6

6:                                                ; preds = %1
  %7 = call noundef ptr @_ZN4llvm8CastInfoIN5clang11DeclRefExprEPNS1_4ExprEvE10castFailedEv()
  store ptr %7, ptr %2, align 8
  br label %11

8:                                                ; preds = %1
  %9 = load ptr, ptr %3, align 8
  %10 = call noundef ptr @_ZN4llvm8CastInfoIN5clang11DeclRefExprEPNS1_4ExprEvE6doCastERKS4_(ptr noundef nonnull align 8 dereferenceable(8) %9)
  store ptr %10, ptr %2, align 8
  br label %11

11:                                               ; preds = %8, %6
  %12 = load ptr, ptr %2, align 8
  ret ptr %12
}

; Function Attrs: mustprogress nounwind uwtable
define linkonce_odr hidden noundef ptr @_ZN4llvm8CastInfoIN5clang14BinaryOperatorEPKNS1_4ExprEvE16doCastIfPossibleERKS5_(ptr noundef nonnull align 8 dereferenceable(8) %0) #0 comdat align 2 {
  %2 = alloca ptr, align 8
  %3 = alloca ptr, align 8
  store ptr %0, ptr %3, align 8
  %4 = load ptr, ptr %3, align 8
  %5 = call noundef zeroext i1 @_ZN4llvm14CastIsPossibleIN5clang14BinaryOperatorEPKNS1_4ExprEvE10isPossibleERKS5_(ptr noundef nonnull align 8 dereferenceable(8) %4)
  br i1 %5, label %8, label %6

6:                                                ; preds = %1
  %7 = call noundef ptr @_ZN4llvm8CastInfoIN5clang14BinaryOperatorEPKNS1_4ExprEvE10castFailedEv()
  store ptr %7, ptr %2, align 8
  br label %11

8:                                                ; preds = %1
  %9 = load ptr, ptr %3, align 8
  %10 = call noundef ptr @_ZN4llvm8CastInfoIN5clang14BinaryOperatorEPKNS1_4ExprEvE6doCastERKS5_(ptr noundef nonnull align 8 dereferenceable(8) %9)
  store ptr %10, ptr %2, align 8
  br label %11

11:                                               ; preds = %8, %6
  %12 = load ptr, ptr %2, align 8
  ret ptr %12
}

; Function Attrs: mustprogress nounwind uwtable
define linkonce_odr hidden noundef ptr @_ZN4llvm4castIN5clang4ExprENS1_4StmtEEEDcPT0_(ptr noundef %0) #0 comdat {
  %2 = alloca ptr, align 8
  store ptr %0, ptr %2, align 8
  %3 = call noundef ptr @_ZN4llvm8CastInfoIN5clang4ExprEPNS1_4StmtEvE6doCastERKS4_(ptr noundef nonnull align 8 dereferenceable(8) %2)
  ret ptr %3
}

; Function Attrs: mustprogress nounwind uwtable
define linkonce_odr hidden noundef zeroext i1 @_ZN5clang14BinaryOperator22isCompoundAssignmentOpENS_18BinaryOperatorKindE(i32 noundef %0) #0 comdat align 2 {
  %2 = alloca i32, align 4
  store i32 %0, ptr %2, align 4
  %3 = load i32, ptr %2, align 4
  %4 = icmp sgt i32 %3, 21
  br i1 %4, label %5, label %8

5:                                                ; preds = %1
  %6 = load i32, ptr %2, align 4
  %7 = icmp sle i32 %6, 31
  br label %8

8:                                                ; preds = %5, %1
  %9 = phi i1 [ false, %1 ], [ %7, %5 ]
  ret i1 %9
}

; Function Attrs: mustprogress nounwind uwtable
define linkonce_odr hidden noundef i32 @_ZNK5clang14BinaryOperator9getOpcodeEv(ptr noundef nonnull align 8 dereferenceable(32) %0) #0 comdat align 2 {
  %2 = alloca ptr, align 8
  store ptr %0, ptr %2, align 8
  %3 = load ptr, ptr %2, align 8
  %4 = getelementptr inbounds nuw %"class.clang::Stmt", ptr %3, i32 0, i32 0
  %5 = load i32, ptr %4, align 8
  %6 = lshr i32 %5, 18
  %7 = and i32 %6, 63
  ret i32 %7
}

; Function Attrs: mustprogress nounwind uwtable
define linkonce_odr hidden noundef ptr @_ZNK5clang11DeclRefExpr7getDeclEv(ptr noundef nonnull align 8 dereferenceable(32) %0) #0 comdat align 2 {
  %2 = alloca ptr, align 8
  store ptr %0, ptr %2, align 8
  %3 = load ptr, ptr %2, align 8
  %4 = getelementptr inbounds nuw %"class.clang::DeclRefExpr", ptr %3, i32 0, i32 1
  %5 = load ptr, ptr %4, align 8
  ret ptr %5
}

; Function Attrs: mustprogress nounwind uwtable
define linkonce_odr hidden noundef ptr @_ZN4llvm8dyn_castIN5clang11DeclRefExprENS1_4ExprEEEDcPT0_(ptr noundef %0) #0 comdat {
  %2 = alloca ptr, align 8
  store ptr %0, ptr %2, align 8
  %3 = call noundef ptr @_ZN4llvm8CastInfoIN5clang11DeclRefExprEPNS1_4ExprEvE16doCastIfPossibleERKS4_(ptr noundef nonnull align 8 dereferenceable(8) %2)
  ret ptr %3
}

; Function Attrs: mustprogress nounwind uwtable
define linkonce_odr hidden noundef ptr @_ZNK5clang14BinaryOperator6getLHSEv(ptr noundef nonnull align 8 dereferenceable(32) %0) #0 comdat align 2 {
  %2 = alloca ptr, align 8
  store ptr %0, ptr %2, align 8
  %3 = load ptr, ptr %2, align 8
  %4 = getelementptr inbounds nuw %"class.clang::BinaryOperator", ptr %3, i32 0, i32 1
  %5 = getelementptr inbounds [2 x ptr], ptr %4, i64 0, i64 0
  %6 = load ptr, ptr %5, align 8
  %7 = call noundef ptr @_ZN4llvm4castIN5clang4ExprENS1_4StmtEEEDcPT0_(ptr noundef %6)
  ret ptr %7
}

; Function Attrs: mustprogress nounwind uwtable
define linkonce_odr hidden noundef ptr @_ZN4llvm8dyn_castIN5clang14BinaryOperatorEKNS1_4ExprEEEDcPT0_(ptr noundef %0) #0 comdat {
  %2 = alloca ptr, align 8
  store ptr %0, ptr %2, align 8
  %3 = call noundef ptr @_ZN4llvm8CastInfoIN5clang14BinaryOperatorEPKNS1_4ExprEvE16doCastIfPossibleERKS5_(ptr noundef nonnull align 8 dereferenceable(8) %2)
  ret ptr %3
}

; Function Attrs: mustprogress nounwind uwtable
define linkonce_odr hidden noundef ptr @_ZNK5clang14BinaryOperator6getRHSEv(ptr noundef nonnull align 8 dereferenceable(32) %0) #0 comdat align 2 {
  %2 = alloca ptr, align 8
  store ptr %0, ptr %2, align 8
  %3 = load ptr, ptr %2, align 8
  %4 = getelementptr inbounds nuw %"class.clang::BinaryOperator", ptr %3, i32 0, i32 1
  %5 = getelementptr inbounds [2 x ptr], ptr %4, i64 0, i64 1
  %6 = load ptr, ptr %5, align 8
  %7 = call noundef ptr @_ZN4llvm4castIN5clang4ExprENS1_4StmtEEEDcPT0_(ptr noundef %6)
  ret ptr %7
}

; Function Attrs: mustprogress nounwind uwtable
define linkonce_odr hidden noundef zeroext i1 @_ZNK5clang14BinaryOperator22isCompoundAssignmentOpEv(ptr noundef nonnull align 8 dereferenceable(32) %0) #0 comdat align 2 {
  %2 = alloca ptr, align 8
  store ptr %0, ptr %2, align 8
  %3 = load ptr, ptr %2, align 8
  %4 = call noundef i32 @_ZNK5clang14BinaryOperator9getOpcodeEv(ptr noundef nonnull align 8 dereferenceable(32) %3)
  %5 = call noundef zeroext i1 @_ZN5clang14BinaryOperator22isCompoundAssignmentOpENS_18BinaryOperatorKindE(i32 noundef %4)
  ret i1 %5
}

; Function Attrs: mustprogress nounwind uwtable
define internal noundef zeroext i1 @_ZN12_GLOBAL__N_112DeadStoreObs11isIncrementEPN5clang7VarDeclEPKNS1_14BinaryOperatorE(ptr noundef nonnull align 8 dereferenceable(368) %0, ptr noundef %1, ptr noundef %2) #0 align 2 {
  %4 = alloca i1, align 1
  %5 = alloca ptr, align 8
  %6 = alloca ptr, align 8
  %7 = alloca ptr, align 8
  %8 = alloca ptr, align 8
  %9 = alloca ptr, align 8
  %10 = alloca ptr, align 8
  store ptr %0, ptr %5, align 8
  store ptr %1, ptr %6, align 8
  store ptr %2, ptr %7, align 8
  %11 = load ptr, ptr %7, align 8
  %12 = call noundef zeroext i1 @_ZNK5clang14BinaryOperator22isCompoundAssignmentOpEv(ptr noundef nonnull align 8 dereferenceable(32) %11)
  br i1 %12, label %13, label %14

13:                                               ; preds = %3
  store i1 true, ptr %4, align 1
  br label %50

14:                                               ; preds = %3
  %15 = load ptr, ptr %7, align 8
  %16 = call noundef ptr @_ZNK5clang14BinaryOperator6getRHSEv(ptr noundef nonnull align 8 dereferenceable(32) %15)
  %17 = call noundef ptr @_ZN5clang4Expr16IgnoreParenCastsEv(ptr noundef nonnull align 8 dereferenceable(16) %16) #15
  store ptr %17, ptr %8, align 8
  %18 = load ptr, ptr %8, align 8
  %19 = call noundef ptr @_ZN4llvm8dyn_castIN5clang14BinaryOperatorEKNS1_4ExprEEEDcPT0_(ptr noundef %18)
  store ptr %19, ptr %9, align 8
  %20 = load ptr, ptr %9, align 8
  %21 = icmp ne ptr %20, null
  br i1 %21, label %23, label %22

22:                                               ; preds = %14
  store i1 false, ptr %4, align 1
  br label %50

23:                                               ; preds = %14
  %24 = load ptr, ptr %9, align 8
  %25 = call noundef ptr @_ZNK5clang14BinaryOperator6getLHSEv(ptr noundef nonnull align 8 dereferenceable(32) %24)
  %26 = call noundef ptr @_ZN5clang4Expr16IgnoreParenCastsEv(ptr noundef nonnull align 8 dereferenceable(16) %25) #15
  %27 = call noundef ptr @_ZN4llvm8dyn_castIN5clang11DeclRefExprENS1_4ExprEEEDcPT0_(ptr noundef %26)
  store ptr %27, ptr %10, align 8
  %28 = icmp ne ptr %27, null
  br i1 %28, label %29, label %36

29:                                               ; preds = %23
  %30 = load ptr, ptr %10, align 8
  %31 = call noundef ptr @_ZNK5clang11DeclRefExpr7getDeclEv(ptr noundef nonnull align 8 dereferenceable(32) %30)
  %32 = load ptr, ptr %6, align 8
  %33 = icmp eq ptr %31, %32
  br i1 %33, label %34, label %35

34:                                               ; preds = %29
  store i1 true, ptr %4, align 1
  br label %50

35:                                               ; preds = %29
  br label %36

36:                                               ; preds = %35, %23
  %37 = load ptr, ptr %9, align 8
  %38 = call noundef ptr @_ZNK5clang14BinaryOperator6getRHSEv(ptr noundef nonnull align 8 dereferenceable(32) %37)
  %39 = call noundef ptr @_ZN5clang4Expr16IgnoreParenCastsEv(ptr noundef nonnull align 8 dereferenceable(16) %38) #15
  %40 = call noundef ptr @_ZN4llvm8dyn_castIN5clang11DeclRefExprENS1_4ExprEEEDcPT0_(ptr noundef %39)
  store ptr %40, ptr %10, align 8
  %41 = icmp ne ptr %40, null
  br i1 %41, label %42, label %49

42:                                               ; preds = %36
  %43 = load ptr, ptr %10, align 8
  %44 = call noundef ptr @_ZNK5clang11DeclRefExpr7getDeclEv(ptr noundef nonnull align 8 dereferenceable(32) %43)
  %45 = load ptr, ptr %6, align 8
  %46 = icmp eq ptr %44, %45
  br i1 %46, label %47, label %48

47:                                               ; preds = %42
  store i1 true, ptr %4, align 1
  br label %50

48:                                               ; preds = %42
  br label %49

49:                                               ; preds = %48, %36
  store i1 false, ptr %4, align 1
  br label %50

50:                                               ; preds = %49, %47, %34, %22, %13
  %51 = load i1, ptr %4, align 1
  ret i1 %51
}