; Function Attrs: mustprogress nofree nounwind willreturn memory(read) uwtable
define internal fastcc noundef zeroext i1 @_ZN12_GLOBAL__N_112DeadStoreObs11isIncrementEPN5clang7VarDeclEPKNS1_14BinaryOperatorE(ptr noundef readnone %0, ptr nocapture noundef readonly %1) unnamed_addr #11 align 2 {
  %3 = load i32, ptr %1, align 8
  %4 = lshr i32 %3, 18
  %5 = and i32 %4, 62
  %6 = add nsw i32 %5, -22
  %7 = icmp ult i32 %6, 10
  br i1 %7, label %33, label %8

8:                                                ; preds = %2
  %9 = getelementptr inbounds i8, ptr %1, i64 24
  %10 = load ptr, ptr %9, align 8
  %11 = tail call noundef ptr @_ZN5clang4Expr16IgnoreParenCastsEv(ptr noundef nonnull align 8 dereferenceable(16) %10) #24
  %12 = load i8, ptr %11, align 8
  %13 = and i8 %12, -2
  %spec.select.i.i.i.i.i.i.i.i.not = icmp eq i8 %13, 118
  br i1 %spec.select.i.i.i.i.i.i.i.i.not, label %14, label %33

14:                                               ; preds = %8
  %15 = getelementptr inbounds nuw i8, ptr %11, i64 16
  %16 = load ptr, ptr %15, align 8
  %17 = tail call noundef ptr @_ZN5clang4Expr16IgnoreParenCastsEv(ptr noundef nonnull align 8 dereferenceable(16) %16) #24
  %18 = load i8, ptr %17, align 8
  %.not = icmp eq i8 %18, 71
  br i1 %.not, label %19, label %23

19:                                               ; preds = %14
  %20 = getelementptr inbounds nuw i8, ptr %17, i64 16
  %21 = load ptr, ptr %20, align 8
  %22 = icmp eq ptr %21, %0
  br i1 %22, label %33, label %23

23:                                               ; preds = %19, %14
  %24 = getelementptr inbounds i8, ptr %11, i64 24
  %25 = load ptr, ptr %24, align 8
  %26 = tail call noundef ptr @_ZN5clang4Expr16IgnoreParenCastsEv(ptr noundef nonnull align 8 dereferenceable(16) %25) #24
  %27 = load i8, ptr %26, align 8
  %.not4 = icmp eq i8 %27, 71
  br i1 %.not4, label %28, label %32

28:                                               ; preds = %23
  %29 = getelementptr inbounds nuw i8, ptr %26, i64 16
  %30 = load ptr, ptr %29, align 8
  %31 = icmp eq ptr %30, %0
  br i1 %31, label %33, label %32

32:                                               ; preds = %28, %23
  br label %33

33:                                               ; preds = %28, %19, %8, %2, %32
  %.0 = phi i1 [ false, %32 ], [ true, %2 ], [ false, %8 ], [ true, %19 ], [ true, %28 ]
  ret i1 %.0
}